target datalayout = "e-m:e-p270:32:32-p271:32:32-p272:64:64-i64:64-i128:128-f80:128-n8:16:32:64-S128"
target triple = "x86_64-pc-linux-gnu"

%struct.VduseVirtq = type { %struct.VduseRing, i16, i16, i16, i16, i8, i32, i32, i8, i32, ptr, ptr, i16, i64, ptr }
%struct.VduseRing = type { i32, i64, i64, i64, ptr, ptr, ptr }
%struct.VduseDev = type { ptr, [256 x %struct.VduseIovaRegion], i32, ptr, i32, i32, i16, i16, i64, ptr, i32, i32, ptr, ptr }
%struct.VduseIovaRegion = type { i64, i64, i64, i64 }
%struct.VduseVirtqInflightDesc = type { i16, i64 }
%struct.vring_used = type { i16, i16, [0 x %struct.vring_used_elem] }
%struct.vring_used_elem = type { i32, i32 }
%struct.VduseVirtqLog = type { %struct.VduseVirtqLogInflight }
%struct.VduseVirtqLogInflight = type { i64, i16, i16, i16, i16, [0 x %struct.VduseDescStateSplit] }
%struct.VduseDescStateSplit = type { i8, [5 x i8], i16, i64 }
%struct.vring_avail = type { i16, i16, [0 x i16] }

@stderr = external global ptr, align 8
@.str.1 = private unnamed_addr constant [29 x i8] c"Virtqueue size exceeded: %d\0A\00", align 1
@.str.16 = private unnamed_addr constant [40 x i8] c"../qemu/subprojects/libvduse/libvduse.c\00", align 1
@.str.30 = private unnamed_addr constant [34 x i8] c"Guest says index %u is available\0A\00", align 1
@.str.41 = private unnamed_addr constant [10 x i8] c"fbit < 64\00", align 1
@__PRETTY_FUNCTION__.has_feature = private unnamed_addr constant [42 x i8] c"_Bool has_feature(uint64_t, unsigned int)\00", align 1

; Function Attrs: inlinehint nounwind uwtable
define internal zeroext i16 @__uint16_identity(i16 noundef zeroext %0) #5 {
  %2 = alloca i16, align 2
  store i16 %0, ptr %2, align 2
  %3 = load i16, ptr %2, align 2
  ret i16 %3
}

; Function Attrs: inlinehint nounwind uwtable
define internal zeroext i1 @has_feature(i64 noundef %0, i32 noundef %1) #5 {
  %3 = alloca i64, align 8
  %4 = alloca i32, align 4
  store i64 %0, ptr %3, align 8
  store i32 %1, ptr %4, align 4
  %5 = load i32, ptr %4, align 4
  %6 = icmp ult i32 %5, 64
  br i1 %6, label %7, label %8

7:                                                ; preds = %2
  br label %9

8:                                                ; preds = %2
  call void @__assert_fail(ptr noundef @.str.41, ptr noundef @.str.16, i32 noundef 167, ptr noundef @__PRETTY_FUNCTION__.has_feature) #15
  unreachable

9:                                                ; preds = %7
  %10 = load i64, ptr %3, align 8
  %11 = load i32, ptr %4, align 4
  %12 = zext i32 %11 to i64
  %13 = shl i64 1, %12
  %14 = and i64 %10, %13
  %15 = icmp ne i64 %14, 0
  %16 = xor i1 %15, true
  %17 = xor i1 %16, true
  ret i1 %17
}

; Function Attrs: inlinehint nounwind uwtable
define internal zeroext i16 @vring_avail_ring(ptr noundef %0, i32 noundef %1) #5 {
  %3 = alloca ptr, align 8
  %4 = alloca i32, align 4
  store ptr %0, ptr %3, align 8
  store i32 %1, ptr %4, align 4
  %5 = load ptr, ptr %3, align 8
  %6 = getelementptr inbounds nuw %struct.VduseVirtq, ptr %5, i32 0, i32 0
  %7 = getelementptr inbounds nuw %struct.VduseRing, ptr %6, i32 0, i32 5
  %8 = load ptr, ptr %7, align 8
  %9 = getelementptr inbounds nuw %struct.vring_avail, ptr %8, i32 0, i32 2
  %10 = load i32, ptr %4, align 4
  %11 = sext i32 %10 to i64
  %12 = getelementptr inbounds [0 x i16], ptr %9, i64 0, i64 %11
  %13 = load i16, ptr %12, align 2
  %14 = call zeroext i16 @__uint16_identity(i16 noundef zeroext %13)
  ret i16 %14
}

; Function Attrs: inlinehint nounwind uwtable
define internal zeroext i16 @vring_avail_idx(ptr noundef %0) #5 {
  %2 = alloca ptr, align 8
  store ptr %0, ptr %2, align 8
  %3 = load ptr, ptr %2, align 8
  %4 = getelementptr inbounds nuw %struct.VduseVirtq, ptr %3, i32 0, i32 0
  %5 = getelementptr inbounds nuw %struct.VduseRing, ptr %4, i32 0, i32 5
  %6 = load ptr, ptr %5, align 8
  %7 = getelementptr inbounds nuw %struct.vring_avail, ptr %6, i32 0, i32 1
  %8 = load i16, ptr %7, align 2
  %9 = call zeroext i16 @__uint16_identity(i16 noundef zeroext %8)
  %10 = load ptr, ptr %2, align 8
  %11 = getelementptr inbounds nuw %struct.VduseVirtq, ptr %10, i32 0, i32 2
  store i16 %9, ptr %11, align 2
  %12 = load ptr, ptr %2, align 8
  %13 = getelementptr inbounds nuw %struct.VduseVirtq, ptr %12, i32 0, i32 2
  %14 = load i16, ptr %13, align 2
  ret i16 %14
}

; Function Attrs: nounwind uwtable
define internal i32 @vduse_queue_inflight_get(ptr noundef %0, i32 noundef %1) #0 {
  %3 = alloca ptr, align 8
  %4 = alloca i32, align 4
  store ptr %0, ptr %3, align 8
  store i32 %1, ptr %4, align 4
  %5 = load ptr, ptr %3, align 8
  %6 = getelementptr inbounds nuw %struct.VduseVirtq, ptr %5, i32 0, i32 13
  %7 = load i64, ptr %6, align 8
  %8 = add i64 %7, 1
  store i64 %8, ptr %6, align 8
  %9 = load ptr, ptr %3, align 8
  %10 = getelementptr inbounds nuw %struct.VduseVirtq, ptr %9, i32 0, i32 14
  %11 = load ptr, ptr %10, align 8
  %12 = getelementptr inbounds nuw %struct.VduseVirtqLog, ptr %11, i32 0, i32 0
  %13 = getelementptr inbounds nuw %struct.VduseVirtqLogInflight, ptr %12, i32 0, i32 5
  %14 = load i32, ptr %4, align 4
  %15 = sext i32 %14 to i64
  %16 = getelementptr inbounds [0 x %struct.VduseDescStateSplit], ptr %13, i64 0, i64 %15
  %17 = getelementptr inbounds nuw %struct.VduseDescStateSplit, ptr %16, i32 0, i32 3
  store i64 %7, ptr %17, align 8
  call void asm sideeffect "", "~{memory},~{dirflag},~{fpsr},~{flags}"() #13, !srcloc !9
  %18 = load ptr, ptr %3, align 8
  %19 = getelementptr inbounds nuw %struct.VduseVirtq, ptr %18, i32 0, i32 14
  %20 = load ptr, ptr %19, align 8
  %21 = getelementptr inbounds nuw %struct.VduseVirtqLog, ptr %20, i32 0, i32 0
  %22 = getelementptr inbounds nuw %struct.VduseVirtqLogInflight, ptr %21, i32 0, i32 5
  %23 = load i32, ptr %4, align 4
  %24 = sext i32 %23 to i64
  %25 = getelementptr inbounds [0 x %struct.VduseDescStateSplit], ptr %22, i64 0, i64 %24
  %26 = getelementptr inbounds nuw %struct.VduseDescStateSplit, ptr %25, i32 0, i32 0
  store i8 1, ptr %26, align 8
  ret i32 0
}

; Function Attrs: inlinehint nounwind uwtable
define internal void @vring_set_avail_event(ptr noundef %0, i16 noundef zeroext %1) #5 {
  %3 = alloca ptr, align 8
  %4 = alloca i16, align 2
  %5 = alloca i16, align 2
  store ptr %0, ptr %3, align 8
  store i16 %1, ptr %4, align 2
  call void @llvm.lifetime.start.p0(i64 2, ptr %5) #13
  %6 = load i16, ptr %4, align 2
  %7 = call zeroext i16 @__uint16_identity(i16 noundef zeroext %6)
  store i16 %7, ptr %5, align 2
  %8 = load ptr, ptr %3, align 8
  %9 = getelementptr inbounds nuw %struct.VduseVirtq, ptr %8, i32 0, i32 0
  %10 = getelementptr inbounds nuw %struct.VduseRing, ptr %9, i32 0, i32 6
  %11 = load ptr, ptr %10, align 8
  %12 = getelementptr inbounds nuw %struct.vring_used, ptr %11, i32 0, i32 2
  %13 = load ptr, ptr %3, align 8
  %14 = getelementptr inbounds nuw %struct.VduseVirtq, ptr %13, i32 0, i32 0
  %15 = getelementptr inbounds nuw %struct.VduseRing, ptr %14, i32 0, i32 0
  %16 = load i32, ptr %15, align 8
  %17 = zext i32 %16 to i64
  %18 = getelementptr inbounds nuw [0 x %struct.vring_used_elem], ptr %12, i64 0, i64 %17
  call void @llvm.memcpy.p0.p0.i64(ptr align 4 %18, ptr align 2 %5, i64 2, i1 false)
  call void @llvm.lifetime.end.p0(i64 2, ptr %5) #13
  ret void
}

; Function Attrs: inlinehint nounwind uwtable
define internal zeroext i1 @vduse_dev_has_feature(ptr noundef %0, i32 noundef %1) #5 {
  %3 = alloca ptr, align 8
  %4 = alloca i32, align 4
  store ptr %0, ptr %3, align 8
  store i32 %1, ptr %4, align 4
  %5 = load ptr, ptr %3, align 8
  %6 = getelementptr inbounds nuw %struct.VduseDev, ptr %5, i32 0, i32 8
  %7 = load i64, ptr %6, align 8
  %8 = load i32, ptr %4, align 4
  %9 = call zeroext i1 @has_feature(i64 noundef %7, i32 noundef %8)
  ret i1 %9
}

; Function Attrs: nounwind uwtable
define internal zeroext i1 @vduse_queue_get_head(ptr noundef %0, i32 noundef %1, ptr noundef %2) #0 {
  %4 = alloca i1, align 1
  %5 = alloca ptr, align 8
  %6 = alloca i32, align 4
  %7 = alloca ptr, align 8
  store ptr %0, ptr %5, align 8
  store i32 %1, ptr %6, align 4
  store ptr %2, ptr %7, align 8
  %8 = load ptr, ptr %5, align 8
  %9 = load i32, ptr %6, align 4
  %10 = load ptr, ptr %5, align 8
  %11 = getelementptr inbounds nuw %struct.VduseVirtq, ptr %10, i32 0, i32 0
  %12 = getelementptr inbounds nuw %struct.VduseRing, ptr %11, i32 0, i32 0
  %13 = load i32, ptr %12, align 8
  %14 = urem i32 %9, %13
  %15 = call zeroext i16 @vring_avail_ring(ptr noundef %8, i32 noundef %14)
  %16 = zext i16 %15 to i32
  %17 = load ptr, ptr %7, align 8
  store i32 %16, ptr %17, align 4
  %18 = load ptr, ptr %7, align 8
  %19 = load i32, ptr %18, align 4
  %20 = load ptr, ptr %5, align 8
  %21 = getelementptr inbounds nuw %struct.VduseVirtq, ptr %20, i32 0, i32 0
  %22 = getelementptr inbounds nuw %struct.VduseRing, ptr %21, i32 0, i32 0
  %23 = load i32, ptr %22, align 8
  %24 = icmp uge i32 %19, %23
  br i1 %24, label %25, label %30

25:                                               ; preds = %3
  %26 = load ptr, ptr @stderr, align 8
  %27 = load ptr, ptr %7, align 8
  %28 = load i32, ptr %27, align 4
  %29 = call i32 (ptr, ptr, ...) @fprintf(ptr noundef %26, ptr noundef @.str.30, i32 noundef %28) #13
  store i1 false, ptr %4, align 1
  br label %31

30:                                               ; preds = %3
  store i1 true, ptr %4, align 1
  br label %31

31:                                               ; preds = %30, %25
  %32 = load i1, ptr %4, align 1
  ret i1 %32
}

; Function Attrs: nounwind uwtable
define internal zeroext i1 @vduse_queue_empty(ptr noundef %0) #0 {
  %2 = alloca i1, align 1
  %3 = alloca ptr, align 8
  store ptr %0, ptr %3, align 8
  %4 = load ptr, ptr %3, align 8
  %5 = getelementptr inbounds nuw %struct.VduseVirtq, ptr %4, i32 0, i32 0
  %6 = getelementptr inbounds nuw %struct.VduseRing, ptr %5, i32 0, i32 5
  %7 = load ptr, ptr %6, align 8
  %8 = icmp ne ptr %7, null
  %9 = xor i1 %8, true
  %10 = xor i1 %9, true
  %11 = xor i1 %10, true
  %12 = zext i1 %11 to i32
  %13 = sext i32 %12 to i64
  %14 = call i64 @llvm.expect.i64(i64 %13, i64 0)
  %15 = icmp ne i64 %14, 0
  br i1 %15, label %16, label %17

16:                                               ; preds = %1
  store i1 true, ptr %2, align 1
  br label %37

17:                                               ; preds = %1
  %18 = load ptr, ptr %3, align 8
  %19 = getelementptr inbounds nuw %struct.VduseVirtq, ptr %18, i32 0, i32 2
  %20 = load i16, ptr %19, align 2
  %21 = zext i16 %20 to i32
  %22 = load ptr, ptr %3, align 8
  %23 = getelementptr inbounds nuw %struct.VduseVirtq, ptr %22, i32 0, i32 1
  %24 = load i16, ptr %23, align 8
  %25 = zext i16 %24 to i32
  %26 = icmp ne i32 %21, %25
  br i1 %26, label %27, label %28

27:                                               ; preds = %17
  store i1 false, ptr %2, align 1
  br label %37

28:                                               ; preds = %17
  %29 = load ptr, ptr %3, align 8
  %30 = call zeroext i16 @vring_avail_idx(ptr noundef %29)
  %31 = zext i16 %30 to i32
  %32 = load ptr, ptr %3, align 8
  %33 = getelementptr inbounds nuw %struct.VduseVirtq, ptr %32, i32 0, i32 1
  %34 = load i16, ptr %33, align 8
  %35 = zext i16 %34 to i32
  %36 = icmp eq i32 %31, %35
  store i1 %36, ptr %2, align 1
  br label %37

37:                                               ; preds = %28, %27, %16
  %38 = load i1, ptr %2, align 1
  ret i1 %38
}

; Function Attrs: nounwind uwtable
define dso_local ptr @vduse_queue_pop(ptr noundef %0, i64 noundef %1) #0 {
  %3 = alloca ptr, align 8
  %4 = alloca ptr, align 8
  %5 = alloca i64, align 8
  %6 = alloca i32, align 4
  %7 = alloca ptr, align 8
  %8 = alloca ptr, align 8
  %9 = alloca i32, align 4
  %10 = alloca i32, align 4
  store ptr %0, ptr %4, align 8
  store i64 %1, ptr %5, align 8
  call void @llvm.lifetime.start.p0(i64 4, ptr %6) #13
  store i32 0, ptr %6, align 4, !annotation !4
  call void @llvm.lifetime.start.p0(i64 8, ptr %7) #13
  store ptr null, ptr %7, align 8, !annotation !4
  call void @llvm.lifetime.start.p0(i64 8, ptr %8) #13
  %11 = load ptr, ptr %4, align 8
  %12 = getelementptr inbounds nuw %struct.VduseVirtq, ptr %11, i32 0, i32 10
  %13 = load ptr, ptr %12, align 8
  store ptr %13, ptr %8, align 8
  call void @llvm.lifetime.start.p0(i64 4, ptr %9) #13
  store i32 0, ptr %9, align 4, !annotation !4
  %14 = load ptr, ptr %4, align 8
  %15 = getelementptr inbounds nuw %struct.VduseVirtq, ptr %14, i32 0, i32 0
  %16 = getelementptr inbounds nuw %struct.VduseRing, ptr %15, i32 0, i32 5
  %17 = load ptr, ptr %16, align 8
  %18 = icmp ne ptr %17, null
  %19 = xor i1 %18, true
  %20 = xor i1 %19, true
  %21 = xor i1 %20, true
  %22 = zext i1 %21 to i32
  %23 = sext i32 %22 to i64
  %24 = call i64 @llvm.expect.i64(i64 %23, i64 0)
  %25 = icmp ne i64 %24, 0
  br i1 %25, label %26, label %27

26:                                               ; preds = %2
  store ptr null, ptr %3, align 8
  store i32 1, ptr %10, align 4
  br label %129

27:                                               ; preds = %2
  %28 = load ptr, ptr %4, align 8
  %29 = getelementptr inbounds nuw %struct.VduseVirtq, ptr %28, i32 0, i32 11
  %30 = load ptr, ptr %29, align 8
  %31 = icmp ne ptr %30, null
  br i1 %31, label %32, label %38

32:                                               ; preds = %27
  %33 = load ptr, ptr %4, align 8
  %34 = getelementptr inbounds nuw %struct.VduseVirtq, ptr %33, i32 0, i32 12
  %35 = load i16, ptr %34, align 8
  %36 = zext i16 %35 to i32
  %37 = icmp sgt i32 %36, 0
  br label %38

38:                                               ; preds = %32, %27
  %39 = phi i1 [ false, %27 ], [ %37, %32 ]
  %40 = xor i1 %39, true
  %41 = xor i1 %40, true
  %42 = zext i1 %41 to i32
  %43 = sext i32 %42 to i64
  %44 = call i64 @llvm.expect.i64(i64 %43, i64 0)
  %45 = icmp ne i64 %44, 0
  br i1 %45, label %46, label %76

46:                                               ; preds = %38
  %47 = load ptr, ptr %4, align 8
  %48 = getelementptr inbounds nuw %struct.VduseVirtq, ptr %47, i32 0, i32 12
  %49 = load i16, ptr %48, align 8
  %50 = add i16 %49, -1
  store i16 %50, ptr %48, align 8
  %51 = zext i16 %50 to i32
  store i32 %51, ptr %9, align 4
  %52 = load ptr, ptr %4, align 8
  %53 = load ptr, ptr %4, align 8
  %54 = getelementptr inbounds nuw %struct.VduseVirtq, ptr %53, i32 0, i32 11
  %55 = load ptr, ptr %54, align 8
  %56 = load i32, ptr %9, align 4
  %57 = sext i32 %56 to i64
  %58 = getelementptr inbounds %struct.VduseVirtqInflightDesc, ptr %55, i64 %57
  %59 = getelementptr inbounds nuw %struct.VduseVirtqInflightDesc, ptr %58, i32 0, i32 0
  %60 = load i16, ptr %59, align 8
  %61 = zext i16 %60 to i32
  %62 = load i64, ptr %5, align 8
  %63 = call ptr @vduse_queue_map_desc(ptr noundef %52, i32 noundef %61, i64 noundef %62)
  store ptr %63, ptr %7, align 8
  %64 = load ptr, ptr %4, align 8
  %65 = getelementptr inbounds nuw %struct.VduseVirtq, ptr %64, i32 0, i32 12
  %66 = load i16, ptr %65, align 8
  %67 = icmp ne i16 %66, 0
  br i1 %67, label %74, label %68

68:                                               ; preds = %46
  %69 = load ptr, ptr %4, align 8
  %70 = getelementptr inbounds nuw %struct.VduseVirtq, ptr %69, i32 0, i32 11
  %71 = load ptr, ptr %70, align 8
  call void @free(ptr noundef %71) #13
  %72 = load ptr, ptr %4, align 8
  %73 = getelementptr inbounds nuw %struct.VduseVirtq, ptr %72, i32 0, i32 11
  store ptr null, ptr %73, align 8
  br label %74

74:                                               ; preds = %68, %46
  %75 = load ptr, ptr %7, align 8
  store ptr %75, ptr %3, align 8
  store i32 1, ptr %10, align 4
  br label %129

76:                                               ; preds = %38
  %77 = load ptr, ptr %4, align 8
  %78 = call zeroext i1 @vduse_queue_empty(ptr noundef %77)
  br i1 %78, label %79, label %80

79:                                               ; preds = %76
  store ptr null, ptr %3, align 8
  store i32 1, ptr %10, align 4
  br label %129

80:                                               ; preds = %76
  call void asm sideeffect "", "~{memory},~{dirflag},~{fpsr},~{flags}"() #13, !srcloc !8
  fence acquire
  %81 = load ptr, ptr %4, align 8
  %82 = getelementptr inbounds nuw %struct.VduseVirtq, ptr %81, i32 0, i32 7
  %83 = load i32, ptr %82, align 8
  %84 = load ptr, ptr %4, align 8
  %85 = getelementptr inbounds nuw %struct.VduseVirtq, ptr %84, i32 0, i32 0
  %86 = getelementptr inbounds nuw %struct.VduseRing, ptr %85, i32 0, i32 0
  %87 = load i32, ptr %86, align 8
  %88 = icmp uge i32 %83, %87
  br i1 %88, label %89, label %95

89:                                               ; preds = %80
  %90 = load ptr, ptr @stderr, align 8
  %91 = load ptr, ptr %4, align 8
  %92 = getelementptr inbounds nuw %struct.VduseVirtq, ptr %91, i32 0, i32 7
  %93 = load i32, ptr %92, align 8
  %94 = call i32 (ptr, ptr, ...) @fprintf(ptr noundef %90, ptr noundef @.str.1, i32 noundef %93) #13
  store ptr null, ptr %3, align 8
  store i32 1, ptr %10, align 4
  br label %129

95:                                               ; preds = %80
  %96 = load ptr, ptr %4, align 8
  %97 = load ptr, ptr %4, align 8
  %98 = getelementptr inbounds nuw %struct.VduseVirtq, ptr %97, i32 0, i32 1
  %99 = load i16, ptr %98, align 8
  %100 = add i16 %99, 1
  store i16 %100, ptr %98, align 8
  %101 = zext i16 %99 to i32
  %102 = call zeroext i1 @vduse_queue_get_head(ptr noundef %96, i32 noundef %101, ptr noundef %6)
  br i1 %102, label %104, label %103

103:                                              ; preds = %95
  store ptr null, ptr %3, align 8
  store i32 1, ptr %10, align 4
  br label %129

104:                                              ; preds = %95
  %105 = load ptr, ptr %8, align 8
  %106 = call zeroext i1 @vduse_dev_has_feature(ptr noundef %105, i32 noundef 29)
  br i1 %106, label %107, label %112

107:                                              ; preds = %104
  %108 = load ptr, ptr %4, align 8
  %109 = load ptr, ptr %4, align 8
  %110 = getelementptr inbounds nuw %struct.VduseVirtq, ptr %109, i32 0, i32 1
  %111 = load i16, ptr %110, align 8
  call void @vring_set_avail_event(ptr noundef %108, i16 noundef zeroext %111)
  br label %112

112:                                              ; preds = %107, %104
  %113 = load ptr, ptr %4, align 8
  %114 = load i32, ptr %6, align 4
  %115 = load i64, ptr %5, align 8
  %116 = call ptr @vduse_queue_map_desc(ptr noundef %113, i32 noundef %114, i64 noundef %115)
  store ptr %116, ptr %7, align 8
  %117 = load ptr, ptr %7, align 8
  %118 = icmp ne ptr %117, null
  br i1 %118, label %120, label %119

119:                                              ; preds = %112
  store ptr null, ptr %3, align 8
  store i32 1, ptr %10, align 4
  br label %129

120:                                              ; preds = %112
  %121 = load ptr, ptr %4, align 8
  %122 = getelementptr inbounds nuw %struct.VduseVirtq, ptr %121, i32 0, i32 7
  %123 = load i32, ptr %122, align 8
  %124 = add i32 %123, 1
  store i32 %124, ptr %122, align 8
  %125 = load ptr, ptr %4, align 8
  %126 = load i32, ptr %6, align 4
  %127 = call i32 @vduse_queue_inflight_get(ptr noundef %125, i32 noundef %126)
  %128 = load ptr, ptr %7, align 8
  store ptr %128, ptr %3, align 8
  store i32 1, ptr %10, align 4
  br label %129

129:                                              ; preds = %120, %119, %103, %89, %79, %74, %26
  call void @llvm.lifetime.end.p0(i64 4, ptr %9) #13
  call void @llvm.lifetime.end.p0(i64 8, ptr %8) #13
  call void @llvm.lifetime.end.p0(i64 8, ptr %7) #13
  call void @llvm.lifetime.end.p0(i64 4, ptr %6) #13
  %130 = load ptr, ptr %3, align 8
  ret ptr %130
}