; Function Attrs: nounwind uwtable
define dso_local noundef ptr @vduse_queue_pop(ptr noundef captures(none) %0, i64 noundef %1) local_unnamed_addr #2 {
  %3 = getelementptr inbounds nuw i8, ptr %0, i64 88
  %4 = load ptr, ptr %3, align 8
  %5 = getelementptr inbounds nuw i8, ptr %0, i64 40
  %6 = load ptr, ptr %5, align 8
  %.not = icmp eq ptr %6, null
  br i1 %.not, label %72, label %7, !prof !4

7:                                                ; preds = %2
  %8 = getelementptr inbounds nuw i8, ptr %0, i64 96
  %9 = load ptr, ptr %8, align 8
  %.not30 = icmp eq ptr %9, null
  br i1 %.not30, label %.critedge, label %10

10:                                               ; preds = %7
  %11 = getelementptr inbounds nuw i8, ptr %0, i64 104
  %12 = load i16, ptr %11, align 8
  %.not39 = icmp eq i16 %12, 0
  br i1 %.not39, label %.critedge, label %13, !prof !8

13:                                               ; preds = %10
  %14 = add i16 %12, -1
  store i16 %14, ptr %11, align 8
  %15 = zext i16 %14 to i64
  %16 = getelementptr inbounds nuw %struct.VduseVirtqInflightDesc, ptr %9, i64 %15
  %17 = load i16, ptr %16, align 8
  %18 = zext i16 %17 to i32
  %19 = tail call fastcc ptr @vduse_queue_map_desc(ptr noundef nonnull %0, i32 noundef %18, i64 noundef %1)
  %20 = load i16, ptr %11, align 8
  %.not33 = icmp eq i16 %20, 0
  br i1 %.not33, label %21, label %72

21:                                               ; preds = %13
  %22 = load ptr, ptr %8, align 8
  tail call void @free(ptr noundef %22) #20
  store ptr null, ptr %8, align 8
  br label %72

.critedge:                                        ; preds = %10, %7
  %23 = getelementptr inbounds nuw i8, ptr %0, i64 58
  %24 = load i16, ptr %23, align 2
  %25 = getelementptr inbounds nuw i8, ptr %0, i64 56
  %26 = load i16, ptr %25, align 8
  %.not6.i = icmp eq i16 %24, %26
  br i1 %.not6.i, label %vduse_queue_empty.exit, label %vduse_queue_empty.exit.thread

vduse_queue_empty.exit:                           ; preds = %.critedge
  %27 = getelementptr inbounds nuw i8, ptr %6, i64 2
  %28 = load i16, ptr %27, align 2
  store i16 %28, ptr %23, align 2
  %29 = icmp eq i16 %28, %24
  br i1 %29, label %72, label %vduse_queue_empty.exit.thread

vduse_queue_empty.exit.thread:                    ; preds = %.critedge, %vduse_queue_empty.exit
  tail call void asm sideeffect "", "~{memory},~{dirflag},~{fpsr},~{flags}"() #20, !srcloc !9
  fence acquire
  %30 = getelementptr inbounds nuw i8, ptr %0, i64 72
  %31 = load i32, ptr %30, align 8
  %32 = load i32, ptr %0, align 8
  %.not31 = icmp ult i32 %31, %32
  br i1 %.not31, label %36, label %33

33:                                               ; preds = %vduse_queue_empty.exit.thread
  %34 = load ptr, ptr @stderr, align 8
  %35 = tail call i32 (ptr, ptr, ...) @fprintf(ptr noundef %34, ptr noundef nonnull @.str.1, i32 noundef %31) #22
  br label %72

36:                                               ; preds = %vduse_queue_empty.exit.thread
  %37 = load i16, ptr %25, align 8
  %38 = add i16 %37, 1
  store i16 %38, ptr %25, align 8
  %39 = zext i16 %37 to i32
  %40 = urem i32 %39, %32
  %.val.i = load ptr, ptr %5, align 8
  %41 = getelementptr inbounds nuw i8, ptr %.val.i, i64 4
  %42 = zext nneg i32 %40 to i64
  %43 = getelementptr inbounds nuw [0 x i16], ptr %41, i64 0, i64 %42
  %44 = load i16, ptr %43, align 2
  %45 = zext i16 %44 to i32
  %.not.i36 = icmp ugt i32 %32, %45
  br i1 %.not.i36, label %48, label %vduse_queue_get_head.exit

vduse_queue_get_head.exit:                        ; preds = %36
  %46 = load ptr, ptr @stderr, align 8
  %47 = tail call i32 (ptr, ptr, ...) @fprintf(ptr noundef %46, ptr noundef nonnull @.str.30, i32 noundef %45) #22
  br label %72

48:                                               ; preds = %36
  %49 = getelementptr i8, ptr %4, i64 8232
  %.val = load i64, ptr %49, align 8
  %50 = and i64 %.val, 536870912
  %.not40 = icmp eq i64 %50, 0
  br i1 %.not40, label %56, label %51

51:                                               ; preds = %48
  %52 = getelementptr i8, ptr %0, i64 48
  %.val35 = load ptr, ptr %52, align 8
  %53 = getelementptr inbounds nuw i8, ptr %.val35, i64 4
  %54 = zext i32 %32 to i64
  %55 = getelementptr inbounds nuw [0 x %struct.vring_used_elem], ptr %53, i64 0, i64 %54
  store i16 %38, ptr %55, align 4
  br label %56

56:                                               ; preds = %51, %48
  %57 = tail call fastcc ptr @vduse_queue_map_desc(ptr noundef nonnull %0, i32 noundef %45, i64 noundef %1)
  %.not32 = icmp eq ptr %57, null
  br i1 %.not32, label %72, label %58

58:                                               ; preds = %56
  %59 = load i32, ptr %30, align 8
  %60 = add i32 %59, 1
  store i32 %60, ptr %30, align 8
  %61 = getelementptr inbounds nuw i8, ptr %0, i64 112
  %62 = load i64, ptr %61, align 8
  %63 = add i64 %62, 1
  store i64 %63, ptr %61, align 8
  %64 = getelementptr inbounds nuw i8, ptr %0, i64 120
  %65 = load ptr, ptr %64, align 8
  %66 = zext i16 %44 to i64
  %.idx.i = shl nuw nsw i64 %66, 4
  %67 = getelementptr i8, ptr %65, i64 24
  %68 = getelementptr i8, ptr %67, i64 %.idx.i
  store i64 %62, ptr %68, align 8
  tail call void asm sideeffect "", "~{memory},~{dirflag},~{fpsr},~{flags}"() #20, !srcloc !10
  %69 = load ptr, ptr %64, align 8
  %70 = getelementptr inbounds nuw i8, ptr %69, i64 16
  %71 = getelementptr inbounds nuw [0 x %struct.VduseDescStateSplit], ptr %70, i64 0, i64 %66
  store i8 1, ptr %71, align 8
  br label %72

72:                                               ; preds = %vduse_queue_get_head.exit, %56, %vduse_queue_empty.exit, %13, %21, %2, %58, %33
  %.0 = phi ptr [ null, %33 ], [ %57, %58 ], [ null, %2 ], [ %19, %21 ], [ %19, %13 ], [ null, %vduse_queue_empty.exit ], [ null, %vduse_queue_get_head.exit ], [ null, %56 ]
  ret ptr %.0
}